target datalayout = "e-m:e-p270:32:32-p271:32:32-p272:64:64-i64:64-i128:128-f80:128-n8:16:32:64-S128"
target triple = "x86_64-unknown-linux-gnu"

%class.b2Shape = type { ptr, i32, float }
%class.b2PolygonShape = type <{ %class.b2Shape, %struct.b2Vec2, [8 x %struct.b2Vec2], [8 x %struct.b2Vec2], i32, [4 x i8] }>
%struct.b2Vec2 = type { float, float }
%struct.b2Hull = type { [8 x %struct.b2Vec2], i32 }

; Function Attrs: mustprogress uwtable
define noundef zeroext i1 @_ZNK14b2PolygonShape8ValidateEv(ptr noundef nonnull align 8 dereferenceable(156) %this) #0 align 2 {
entry:
  %retval = alloca i1, align 1
  %this.addr = alloca ptr, align 8
  %hull = alloca %struct.b2Hull, align 4
  %i = alloca i32, align 4
  store ptr %this, ptr %this.addr, align 8
  %this1 = load ptr, ptr %this.addr, align 8
  %m_count = getelementptr inbounds %class.b2PolygonShape, ptr %this1, i32 0, i32 4
  %0 = load i32, ptr %m_count, align 8
  %cmp = icmp slt i32 %0, 3
  br i1 %cmp, label %if.then, label %lor.lhs.false

lor.lhs.false:                                    ; preds = %entry
  %m_count2 = getelementptr inbounds %class.b2PolygonShape, ptr %this1, i32 0, i32 4
  %1 = load i32, ptr %m_count2, align 8
  %cmp3 = icmp slt i32 8, %1
  br i1 %cmp3, label %if.then, label %if.end

if.then:                                          ; preds = %lor.lhs.false, %entry
  store i1 false, ptr %retval, align 1
  br label %return

if.end:                                           ; preds = %lor.lhs.false
  store i32 0, ptr %i, align 4
  br label %for.cond

for.cond:                                         ; preds = %for.inc, %if.end
  %2 = load i32, ptr %i, align 4
  %m_count4 = getelementptr inbounds %class.b2PolygonShape, ptr %this1, i32 0, i32 4
  %3 = load i32, ptr %m_count4, align 8
  %cmp5 = icmp slt i32 %2, %3
  br i1 %cmp5, label %for.body, label %for.end

for.body:                                         ; preds = %for.cond
  %m_vertices = getelementptr inbounds %class.b2PolygonShape, ptr %this1, i32 0, i32 2
  %4 = load i32, ptr %i, align 4
  %idxprom = sext i32 %4 to i64
  %arrayidx = getelementptr inbounds [8 x %struct.b2Vec2], ptr %m_vertices, i64 0, i64 %idxprom
  %points = getelementptr inbounds %struct.b2Hull, ptr %hull, i32 0, i32 0
  %5 = load i32, ptr %i, align 4
  %idxprom6 = sext i32 %5 to i64
  %arrayidx7 = getelementptr inbounds [8 x %struct.b2Vec2], ptr %points, i64 0, i64 %idxprom6
  call void @llvm.memcpy.p0.p0.i64(ptr align 4 %arrayidx7, ptr align 8 %arrayidx, i64 8, i1 false)
  br label %for.inc

for.inc:                                          ; preds = %for.body
  %6 = load i32, ptr %i, align 4
  %inc = add nsw i32 %6, 1
  store i32 %inc, ptr %i, align 4
  br label %for.cond, !llvm.loop !13

for.end:                                          ; preds = %for.cond
  %m_count8 = getelementptr inbounds %class.b2PolygonShape, ptr %this1, i32 0, i32 4
  %7 = load i32, ptr %m_count8, align 8
  %count = getelementptr inbounds %struct.b2Hull, ptr %hull, i32 0, i32 1
  store i32 %7, ptr %count, align 4
  %call = call noundef zeroext i1 @_Z14b2ValidateHullRK6b2Hull(ptr noundef nonnull align 4 dereferenceable(68) %hull)
  store i1 %call, ptr %retval, align 1
  br label %return

return:                                           ; preds = %for.end, %if.then
  %8 = load i1, ptr %retval, align 1
  ret i1 %8
}