; Function Attrs: mustprogress uwtable
define noundef zeroext i1 @_ZNK14b2PolygonShape8ValidateEv(ptr nocapture noundef nonnull readonly align 8 dereferenceable(156) %this) local_unnamed_addr #1 align 2 {
entry:
  %hull = alloca %struct.b2Hull, align 4
  %m_count = getelementptr inbounds i8, ptr %this, i64 152
  %0 = load i32, ptr %m_count, align 8
  %1 = add i32 %0, -9
  %or.cond = icmp ult i32 %1, -6
  br i1 %or.cond, label %return, label %for.end

for.end:                                          ; preds = %entry
  %m_vertices = getelementptr inbounds i8, ptr %this, i64 24
  %2 = shl nuw nsw i32 %0, 3
  %3 = zext nneg i32 %2 to i64
  call void @llvm.memcpy.p0.p0.i64(ptr nonnull align 4 %hull, ptr nonnull align 8 %m_vertices, i64 %3, i1 false)
  %count = getelementptr inbounds i8, ptr %hull, i64 64
  store i32 %0, ptr %count, align 4
  %call = call noundef zeroext i1 @_Z14b2ValidateHullRK6b2Hull(ptr noundef nonnull align 4 dereferenceable(68) %hull)
  br label %return

return:                                           ; preds = %entry, %for.end
  %retval.0 = phi i1 [ %call, %for.end ], [ false, %entry ]
  ret i1 %retval.0
}